target datalayout = "e-m:e-p270:32:32-p271:32:32-p272:64:64-i64:64-i128:128-f80:128-n8:16:32:64-S128"
target triple = "x86_64-pc-linux-gnu"

%struct.MvcCoverStruct = type { i32, i32, i32, %struct.MvcListStruct, ptr, i32, ptr, ptr, ptr }
%struct.MvcListStruct = type { ptr, ptr, i32 }
%struct.MvcCubeStruct = type { ptr, i32, i32, [1 x i32] }

; Function Attrs: nounwind uwtable
define i32 @Mvc_CoverReadCubeNum(ptr noundef %0) #0 {
  %2 = alloca ptr, align 8
  store ptr %0, ptr %2, align 8, !tbaa !3
  %3 = load ptr, ptr %2, align 8, !tbaa !3
  %4 = getelementptr inbounds nuw %struct.MvcCoverStruct, ptr %3, i32 0, i32 3
  %5 = getelementptr inbounds nuw %struct.MvcListStruct, ptr %4, i32 0, i32 2
  %6 = load i32, ptr %5, align 8, !tbaa !17
  ret i32 %6
}

; Function Attrs: nounwind uwtable
define i32 @Mvc_CoverIsBinaryBuffer(ptr noundef %0) #0 {
  %2 = alloca i32, align 4
  %3 = alloca ptr, align 8
  %4 = alloca ptr, align 8
  %5 = alloca i32, align 4
  store ptr %0, ptr %3, align 8, !tbaa !3
  call void @llvm.lifetime.start.p0(i64 8, ptr %4) #4
  %6 = load ptr, ptr %3, align 8, !tbaa !3
  %7 = getelementptr inbounds nuw %struct.MvcCoverStruct, ptr %6, i32 0, i32 2
  %8 = load i32, ptr %7, align 8, !tbaa !16
  %9 = icmp ne i32 %8, 2
  br i1 %9, label %10, label %11

10:                                               ; preds = %1
  store i32 0, ptr %2, align 4
  store i32 1, ptr %5, align 4
  br label %40

11:                                               ; preds = %1
  %12 = load ptr, ptr %3, align 8, !tbaa !3
  %13 = call i32 @Mvc_CoverReadCubeNum(ptr noundef %12)
  %14 = icmp ne i32 %13, 1
  br i1 %14, label %15, label %16

15:                                               ; preds = %11
  store i32 0, ptr %2, align 4
  store i32 1, ptr %5, align 4
  br label %40

16:                                               ; preds = %11
  %17 = load ptr, ptr %3, align 8, !tbaa !3
  %18 = getelementptr inbounds nuw %struct.MvcCoverStruct, ptr %17, i32 0, i32 3
  %19 = getelementptr inbounds nuw %struct.MvcListStruct, ptr %18, i32 0, i32 0
  %20 = load ptr, ptr %19, align 8, !tbaa !18
  store ptr %20, ptr %4, align 8, !tbaa !26
  %21 = load ptr, ptr %4, align 8, !tbaa !26
  %22 = getelementptr inbounds nuw %struct.MvcCubeStruct, ptr %21, i32 0, i32 3
  %23 = getelementptr inbounds [1 x i32], ptr %22, i64 0, i64 0
  %24 = load i32, ptr %23, align 8, !tbaa !25
  %25 = and i32 %24, 1
  %26 = icmp ugt i32 %25, 0
  %27 = zext i1 %26 to i32
  %28 = icmp eq i32 %27, 0
  br i1 %28, label %29, label %39

29:                                               ; preds = %16
  %30 = load ptr, ptr %4, align 8, !tbaa !26
  %31 = getelementptr inbounds nuw %struct.MvcCubeStruct, ptr %30, i32 0, i32 3
  %32 = getelementptr inbounds [1 x i32], ptr %31, i64 0, i64 0
  %33 = load i32, ptr %32, align 8, !tbaa !25
  %34 = and i32 %33, 2
  %35 = icmp ugt i32 %34, 0
  %36 = zext i1 %35 to i32
  %37 = icmp eq i32 %36, 1
  br i1 %37, label %38, label %39

38:                                               ; preds = %29
  store i32 1, ptr %2, align 4
  store i32 1, ptr %5, align 4
  br label %40

39:                                               ; preds = %29, %16
  store i32 0, ptr %2, align 4
  store i32 1, ptr %5, align 4
  br label %40

40:                                               ; preds = %39, %38, %15, %10
  call void @llvm.lifetime.end.p0(i64 8, ptr %4) #4
  %41 = load i32, ptr %2, align 4
  ret i32 %41
}