; Function Attrs: mustprogress nofree norecurse nosync nounwind willreturn memory(read, inaccessiblemem: none) uwtable
define range(i32 0, 2) i32 @Mvc_CoverIsBinaryBuffer(ptr noundef readonly captures(none) %0) local_unnamed_addr #6 {
  %2 = getelementptr inbounds nuw i8, ptr %0, i64 8
  %3 = load i32, ptr %2, align 8, !tbaa !14
  %.not = icmp eq i32 %3, 2
  br i1 %.not, label %4, label %13

4:                                                ; preds = %1
  %5 = getelementptr inbounds nuw i8, ptr %0, i64 32
  %6 = load i32, ptr %5, align 8, !tbaa !15
  %.not5 = icmp eq i32 %6, 1
  br i1 %.not5, label %7, label %13

7:                                                ; preds = %4
  %8 = getelementptr inbounds nuw i8, ptr %0, i64 16
  %9 = load ptr, ptr %8, align 8, !tbaa !16
  %10 = getelementptr inbounds nuw i8, ptr %9, i64 16
  %11 = load i32, ptr %10, align 8, !tbaa !23
  %12 = and i32 %11, 3
  %or.cond.not = icmp eq i32 %12, 2
  %spec.select = zext i1 %or.cond.not to i32
  br label %13

13:                                               ; preds = %7, %4, %1
  %.0 = phi i32 [ 0, %1 ], [ 0, %4 ], [ %spec.select, %7 ]
  ret i32 %.0
}